target datalayout = "e-m:e-p270:32:32-p271:32:32-p272:64:64-i64:64-i128:128-f80:128-n8:16:32:64-S128"
target triple = "x86_64-pc-linux-gnu"

%struct._object = type { %union.anon.41, ptr }
%union.anon.41 = type { i64 }

@_Py_NoneStruct = external global %struct._object, align 8
@PyExc_ValueError = external global ptr, align 8
@.str.6 = private unnamed_addr constant [48 x i8] c"can't specify a timeout for a non-blocking call\00", align 1
@.str.7 = private unnamed_addr constant [44 x i8] c"timeout value must be a non-negative number\00", align 1
@PyExc_OverflowError = external global ptr, align 8
@.str.8 = private unnamed_addr constant [27 x i8] c"timeout value is too large\00", align 1

; Function Attrs: nounwind uwtable
define dso_local i32 @PyThread_ParseTimeoutArg(ptr noundef %0, i32 noundef %1, ptr noundef %2) #0 {
  %4 = alloca i32, align 4
  %5 = alloca ptr, align 8
  %6 = alloca i32, align 4
  %7 = alloca ptr, align 8
  %8 = alloca i64, align 8
  %9 = alloca i32, align 4
  store ptr %0, ptr %5, align 8, !tbaa !196
  store i32 %1, ptr %6, align 4, !tbaa !175
  store ptr %2, ptr %7, align 8, !tbaa !182
  %10 = load ptr, ptr %5, align 8, !tbaa !196
  %11 = icmp eq ptr %10, null
  br i1 %11, label %15, label %12

12:                                               ; preds = %3
  %13 = load ptr, ptr %5, align 8, !tbaa !196
  %14 = icmp eq ptr %13, @_Py_NoneStruct
  br i1 %14, label %15, label %20

15:                                               ; preds = %12, %3
  %16 = load i32, ptr %6, align 4, !tbaa !175
  %17 = icmp ne i32 %16, 0
  %18 = select i1 %17, i64 -1000000000, i64 0
  %19 = load ptr, ptr %7, align 8, !tbaa !182
  store i64 %18, ptr %19, align 8, !tbaa !178
  store i32 0, ptr %4, align 4
  br label %45

20:                                               ; preds = %12
  %21 = load i32, ptr %6, align 4, !tbaa !175
  %22 = icmp ne i32 %21, 0
  br i1 %22, label %25, label %23

23:                                               ; preds = %20
  %24 = load ptr, ptr @PyExc_ValueError, align 8, !tbaa !196
  call void @PyErr_SetString(ptr noundef %24, ptr noundef @.str.6)
  store i32 -1, ptr %4, align 4
  br label %45

25:                                               ; preds = %20
  call void @llvm.lifetime.start.p0(i64 8, ptr %8) #11
  %26 = load ptr, ptr %5, align 8, !tbaa !196
  %27 = call i32 @_PyTime_FromSecondsObject(ptr noundef %8, ptr noundef %26, i32 noundef 3)
  %28 = icmp slt i32 %27, 0
  br i1 %28, label %29, label %30

29:                                               ; preds = %25
  store i32 -1, ptr %4, align 4
  store i32 1, ptr %9, align 4
  br label %44

30:                                               ; preds = %25
  %31 = load i64, ptr %8, align 8, !tbaa !181
  %32 = icmp slt i64 %31, 0
  br i1 %32, label %33, label %35

33:                                               ; preds = %30
  %34 = load ptr, ptr @PyExc_ValueError, align 8, !tbaa !196
  call void @PyErr_SetString(ptr noundef %34, ptr noundef @.str.7)
  store i32 -1, ptr %4, align 4
  store i32 1, ptr %9, align 4
  br label %44

35:                                               ; preds = %30
  %36 = load i64, ptr %8, align 8, !tbaa !181
  %37 = call i64 @_PyTime_AsMicroseconds(i64 noundef %36, i32 noundef 3)
  %38 = icmp sgt i64 %37, 9223372036854775
  br i1 %38, label %39, label %41

39:                                               ; preds = %35
  %40 = load ptr, ptr @PyExc_OverflowError, align 8, !tbaa !196
  call void @PyErr_SetString(ptr noundef %40, ptr noundef @.str.8)
  store i32 -1, ptr %4, align 4
  store i32 1, ptr %9, align 4
  br label %44

41:                                               ; preds = %35
  %42 = load i64, ptr %8, align 8, !tbaa !181
  %43 = load ptr, ptr %7, align 8, !tbaa !182
  store i64 %42, ptr %43, align 8, !tbaa !178
  store i32 0, ptr %4, align 4
  store i32 1, ptr %9, align 4
  br label %44

44:                                               ; preds = %41, %39, %33, %29
  call void @llvm.lifetime.end.p0(i64 8, ptr %8) #11
  br label %45

45:                                               ; preds = %44, %23, %15
  %46 = load i32, ptr %4, align 4
  ret i32 %46
}