; Function Attrs: nounwind uwtable
define dso_local range(i32 -1, 1) i32 @PyThread_ParseTimeoutArg(ptr noundef %0, i32 noundef %1, ptr noundef writeonly captures(none) %2) local_unnamed_addr #0 {
  %4 = alloca i64, align 8
  %5 = icmp eq ptr %0, null
  %6 = icmp eq ptr %0, @_Py_NoneStruct
  %or.cond = or i1 %5, %6
  %.not10 = icmp eq i32 %1, 0
  br i1 %or.cond, label %7, label %9

7:                                                ; preds = %3
  %8 = select i1 %.not10, i64 0, i64 -1000000000
  store i64 %8, ptr %2, align 8, !tbaa !177
  br label %28

9:                                                ; preds = %3
  br i1 %.not10, label %10, label %12

10:                                               ; preds = %9
  %11 = load ptr, ptr @PyExc_ValueError, align 8, !tbaa !188
  tail call void @PyErr_SetString(ptr noundef %11, ptr noundef nonnull @.str.6) #13
  br label %28

12:                                               ; preds = %9
  call void @llvm.lifetime.start.p0(i64 8, ptr nonnull %4) #13
  %13 = call i32 @_PyTime_FromSecondsObject(ptr noundef nonnull %4, ptr noundef nonnull %0, i32 noundef 3) #13
  %14 = icmp slt i32 %13, 0
  br i1 %14, label %27, label %15

15:                                               ; preds = %12
  %16 = load i64, ptr %4, align 8, !tbaa !176
  %17 = icmp slt i64 %16, 0
  br i1 %17, label %18, label %20

18:                                               ; preds = %15
  %19 = load ptr, ptr @PyExc_ValueError, align 8, !tbaa !188
  call void @PyErr_SetString(ptr noundef %19, ptr noundef nonnull @.str.7) #13
  br label %27

20:                                               ; preds = %15
  %21 = call i64 @_PyTime_AsMicroseconds(i64 noundef %16, i32 noundef 3) #13
  %22 = icmp sgt i64 %21, 9223372036854775
  br i1 %22, label %23, label %25

23:                                               ; preds = %20
  %24 = load ptr, ptr @PyExc_OverflowError, align 8, !tbaa !188
  call void @PyErr_SetString(ptr noundef %24, ptr noundef nonnull @.str.8) #13
  br label %27

25:                                               ; preds = %20
  %26 = load i64, ptr %4, align 8, !tbaa !176
  store i64 %26, ptr %2, align 8, !tbaa !177
  br label %27

27:                                               ; preds = %12, %25, %23, %18
  %.1 = phi i32 [ -1, %18 ], [ -1, %23 ], [ 0, %25 ], [ -1, %12 ]
  call void @llvm.lifetime.end.p0(i64 8, ptr nonnull %4) #13
  br label %28

28:                                               ; preds = %27, %10, %7
  %.0 = phi i32 [ 0, %7 ], [ %.1, %27 ], [ -1, %10 ]
  ret i32 %.0
}